target datalayout = "e-m:e-p270:32:32-p271:32:32-p272:64:64-i64:64-i128:128-f80:128-n8:16:32:64-S128"
target triple = "x86_64-pc-linux-gnu"

%struct._zval_struct = type { %union._zend_value, %union.anon, %union.anon.2 }
%union._zend_value = type { i64 }
%union.anon = type { i32 }
%union.anon.2 = type { i32 }
%struct._zend_execute_data = type { ptr, ptr, ptr, ptr, %struct._zval_struct, ptr, ptr, ptr, ptr }

; Function Attrs: nounwind uwtable
define hidden void @zif_var_dump(ptr noundef %0, ptr noundef %1) #0 {
  %3 = alloca ptr, align 8
  %4 = alloca ptr, align 8
  %5 = alloca ptr, align 8
  %6 = alloca i32, align 4
  %7 = alloca i32, align 4
  %8 = alloca i32, align 4
  %9 = alloca i32, align 4
  %10 = alloca i32, align 4
  %11 = alloca i32, align 4
  %12 = alloca i32, align 4
  %13 = alloca ptr, align 8
  %14 = alloca ptr, align 8
  %15 = alloca i32, align 4
  %16 = alloca ptr, align 8
  %17 = alloca i8, align 1
  %18 = alloca i8, align 1
  %19 = alloca i32, align 4
  %20 = alloca i32, align 4
  store ptr %0, ptr %3, align 8
  store ptr %1, ptr %4, align 8
  br label %21

21:                                               ; preds = %2
  store i32 0, ptr %8, align 4
  store i32 1, ptr %9, align 4
  store i32 -1, ptr %10, align 4
  %22 = load ptr, ptr %3, align 8
  %23 = getelementptr inbounds %struct._zend_execute_data, ptr %22, i32 0, i32 4
  %24 = getelementptr inbounds %struct._zval_struct, ptr %23, i32 0, i32 2
  %25 = load i32, ptr %24, align 4
  store i32 %25, ptr %11, align 4
  store i32 0, ptr %12, align 4
  store ptr null, ptr %14, align 8
  store i32 0, ptr %15, align 4
  store ptr null, ptr %16, align 8
  store i8 0, ptr %17, align 1
  store i8 0, ptr %18, align 1
  store i32 0, ptr %19, align 4
  br label %26

26:                                               ; preds = %21
  %27 = load i32, ptr %11, align 4
  %28 = load i32, ptr %9, align 4
  %29 = icmp ult i32 %27, %28
  %30 = xor i1 %29, true
  %31 = xor i1 %30, true
  %32 = zext i1 %31 to i32
  %33 = sext i32 %32 to i64
  %34 = icmp ne i64 %33, 0
  br i1 %34, label %44, label %35

35:                                               ; preds = %26
  %36 = load i32, ptr %11, align 4
  %37 = load i32, ptr %10, align 4
  %38 = icmp ugt i32 %36, %37
  %39 = xor i1 %38, true
  %40 = xor i1 %39, true
  %41 = zext i1 %40 to i32
  %42 = sext i32 %41 to i64
  %43 = icmp ne i64 %42, 0
  br i1 %43, label %44, label %47

44:                                               ; preds = %35, %26
  %45 = load i32, ptr %9, align 4
  %46 = load i32, ptr %10, align 4
  call void @zend_wrong_parameters_count_error(i32 noundef %45, i32 noundef %46)
  store i32 1, ptr %19, align 4
  br label %97

47:                                               ; preds = %35
  %48 = load ptr, ptr %3, align 8
  %49 = getelementptr inbounds %struct._zval_struct, ptr %48, i64 4
  store ptr %49, ptr %13, align 8
  br label %50

50:                                               ; preds = %47
  %51 = load i32, ptr %11, align 4
  %52 = load i32, ptr %12, align 4
  %53 = sub i32 %51, %52
  %54 = sub i32 %53, 0
  store i32 %54, ptr %20, align 4
  %55 = load i32, ptr %20, align 4
  %56 = icmp ugt i32 %55, 0
  %57 = xor i1 %56, true
  %58 = xor i1 %57, true
  %59 = zext i1 %58 to i32
  %60 = sext i32 %59 to i64
  %61 = icmp ne i64 %60, 0
  br i1 %61, label %62, label %73

62:                                               ; preds = %50
  %63 = load ptr, ptr %13, align 8
  %64 = getelementptr inbounds %struct._zval_struct, ptr %63, i64 1
  store ptr %64, ptr %5, align 8
  %65 = load i32, ptr %20, align 4
  store i32 %65, ptr %6, align 4
  %66 = load i32, ptr %20, align 4
  %67 = load i32, ptr %12, align 4
  %68 = add i32 %67, %66
  store i32 %68, ptr %12, align 4
  %69 = load i32, ptr %20, align 4
  %70 = load ptr, ptr %13, align 8
  %71 = zext i32 %69 to i64
  %72 = getelementptr inbounds %struct._zval_struct, ptr %70, i64 %71
  store ptr %72, ptr %13, align 8
  br label %74

73:                                               ; preds = %50
  store ptr null, ptr %5, align 8
  store i32 0, ptr %6, align 4
  br label %74

74:                                               ; preds = %73, %62
  %75 = load ptr, ptr %3, align 8
  %76 = getelementptr inbounds %struct._zend_execute_data, ptr %75, i32 0, i32 4
  %77 = getelementptr inbounds %struct._zval_struct, ptr %76, i32 0, i32 1
  %78 = load i32, ptr %77, align 8
  %79 = and i32 %78, 134217728
  %80 = icmp ne i32 %79, 0
  %81 = xor i1 %80, true
  %82 = xor i1 %81, true
  %83 = zext i1 %82 to i32
  %84 = sext i32 %83 to i64
  %85 = icmp ne i64 %84, 0
  br i1 %85, label %86, label %87

86:                                               ; preds = %74
  store i32 11, ptr %19, align 4
  br label %88

87:                                               ; preds = %74
  br label %88

88:                                               ; preds = %87, %86
  %89 = load i32, ptr %12, align 4
  %90 = load i32, ptr %10, align 4
  %91 = icmp eq i32 %89, %90
  br i1 %91, label %95, label %92

92:                                               ; preds = %88
  %93 = load i32, ptr %10, align 4
  %94 = icmp eq i32 %93, -1
  br label %95

95:                                               ; preds = %92, %88
  %96 = phi i1 [ true, %88 ], [ %94, %92 ]
  call void @llvm.assume(i1 %96)
  br label %97

97:                                               ; preds = %95, %44
  %98 = load i32, ptr %19, align 4
  %99 = icmp ne i32 %98, 0
  %100 = xor i1 %99, true
  %101 = xor i1 %100, true
  %102 = zext i1 %101 to i32
  %103 = sext i32 %102 to i64
  %104 = icmp ne i64 %103, 0
  br i1 %104, label %105, label %111

105:                                              ; preds = %97
  %106 = load i32, ptr %19, align 4
  %107 = load i32, ptr %12, align 4
  %108 = load ptr, ptr %16, align 8
  %109 = load i32, ptr %15, align 4
  %110 = load ptr, ptr %14, align 8
  call void @zend_wrong_parameter_error(i32 noundef %106, i32 noundef %107, ptr noundef %108, i32 noundef %109, ptr noundef %110)
  br label %125

111:                                              ; preds = %97
  br label %112

112:                                              ; preds = %111
  store i32 0, ptr %7, align 4
  br label %113

113:                                              ; preds = %122, %112
  %114 = load i32, ptr %7, align 4
  %115 = load i32, ptr %6, align 4
  %116 = icmp slt i32 %114, %115
  br i1 %116, label %117, label %125

117:                                              ; preds = %113
  %118 = load ptr, ptr %5, align 8
  %119 = load i32, ptr %7, align 4
  %120 = sext i32 %119 to i64
  %121 = getelementptr inbounds %struct._zval_struct, ptr %118, i64 %120
  call void @php_var_dump(ptr noundef %121, i32 noundef 1)
  br label %122

122:                                              ; preds = %117
  %123 = load i32, ptr %7, align 4
  %124 = add nsw i32 %123, 1
  store i32 %124, ptr %7, align 4
  br label %113

125:                                              ; preds = %113, %105
  ret void
}