; Function Attrs: nounwind uwtable
define hidden void @zif_var_dump(ptr noundef %0, ptr nocapture noundef readnone %1) local_unnamed_addr #0 {
  %3 = getelementptr inbounds i8, ptr %0, i64 44
  %4 = load i32, ptr %3, align 4
  %5 = icmp eq i32 %4, 0
  br i1 %5, label %6, label %7

6:                                                ; preds = %2
  tail call void @zend_wrong_parameters_count_error(i32 noundef 1, i32 noundef -1) #12
  br label %13

7:                                                ; preds = %2
  %8 = getelementptr inbounds i8, ptr %0, i64 80
  %9 = getelementptr inbounds i8, ptr %0, i64 40
  %10 = load i32, ptr %9, align 8
  %11 = and i32 %10, 134217728
  %.not = icmp eq i32 %11, 0
  br i1 %.not, label %.preheader, label %13

.preheader:                                       ; preds = %7
  %12 = icmp sgt i32 %4, 0
  br i1 %12, label %.lr.ph.preheader, label %.loopexit

.lr.ph.preheader:                                 ; preds = %.preheader
  %wide.trip.count = zext nneg i32 %4 to i64
  br label %.lr.ph

13:                                               ; preds = %6, %7
  %.132.ph = phi i32 [ 11, %7 ], [ 1, %6 ]
  tail call void @zend_wrong_parameter_error(i32 noundef %.132.ph, i32 noundef %4, ptr noundef null, i32 noundef 0, ptr noundef null) #12
  br label %.loopexit

.lr.ph:                                           ; preds = %.lr.ph.preheader, %.lr.ph
  %indvars.iv = phi i64 [ 0, %.lr.ph.preheader ], [ %indvars.iv.next, %.lr.ph ]
  %14 = getelementptr inbounds %struct._zval_struct, ptr %8, i64 %indvars.iv
  tail call void @php_var_dump(ptr noundef nonnull %14, i32 noundef 1)
  %indvars.iv.next = add nuw nsw i64 %indvars.iv, 1
  %exitcond.not = icmp eq i64 %indvars.iv.next, %wide.trip.count
  br i1 %exitcond.not, label %.loopexit, label %.lr.ph

.loopexit:                                        ; preds = %.lr.ph, %.preheader, %13
  ret void
}